Certificate:
    Data:
        Version: 3 (0x2)
        Serial Number:
            e0:13:45:68:1d:de:a4:01
        Signature Algorithm: sha1WithRSAEncryption
        Issuer: C=US, ST=Missouri, O=Siri Proxy, CN=SiriProxyCA
        Validity
            Not Before: Dec 31 22:49:50 2011 GMT
            Not After : Dec 30 22:49:50 2014 GMT
        Subject: C=US, ST=Missouri, O=Siri Proxy, CN=SiriProxyCA
        Subject Public Key Info:
            Public Key Algorithm: rsaEncryption
            RSA Public Key: (1024 bit)
                Modulus (1024 bit):
                    00:bb:61:f6:72:43:d5:28:21:94:35:86:1b:ac:cd:
                    cb:ad:dd:93:ae:e5:98:16:01:79:29:88:6d:50:2e:
                    98:1e:c4:11:2f:df:5f:ef:18:ff:25:3a:01:8b:ea:
                    ee:35:c8:84:27:3d:ab:3f:26:80:ae:67:fd:db:66:
                    bc:ed:57:1a:33:86:b4:51:2e:b7:7e:23:89:b1:53:
                    05:61:bb:1c:67:79:c3:1e:fd:69:6a:d3:66:77:89:
                    6b:a8:84:8b:96:4c:69:bf:bf:c6:93:20:70:bc:19:
                    5d:65:86:4c:f2:65:c3:1f:76:e1:af:6b:31:ff:5c:
                    29:62:5f:fd:23:58:97:2a:5d
                Exponent: 65537 (0x10001)
        X509v3 extensions:
            X509v3 Subject Key Identifier: 
                37:51:2F:C3:12:93:2E:27:8A:42:55:A4:AC:5E:8B:DE:A6:FE:DF:AB
            X509v3 Authority Key Identifier: 
                keyid:37:51:2F:C3:12:93:2E:27:8A:42:55:A4:AC:5E:8B:DE:A6:FE:DF:AB

            X509v3 Basic Constraints: 
                CA:TRUE
    Signature Algorithm: sha1WithRSAEncryption
        13:da:46:15:fc:af:4f:91:a5:e1:7e:41:d9:de:56:65:d4:22:
        2d:16:36:ed:36:ca:84:5a:c6:05:87:9f:71:8e:c7:4e:98:51:
        8d:73:d3:11:f4:4d:7d:78:37:cc:91:58:b8:69:26:41:9e:16:
        52:ec:07:75:3c:e9:25:07:84:2f:8a:0c:30:a0:32:1e:8e:12:
        8e:87:e1:26:25:07:fb:ef:3a:38:b7:7f:9c:6e:07:88:bf:9e:
        24:71:c6:c8:4c:ec:ca:55:93:9f:40:dc:73:b1:f7:d9:b7:9f:
        4b:e6:52:e7:b6:b3:b0:45:34:36:93:e2:63:10:59:58:95:e0:
        47:8a
-----BEGIN CERTIFICATE-----
MIICZDCCAc2gAwIBAgIJAOATRWgd3qQBMA0GCSqGSIb3DQEBBQUAMEsxCzAJBgNV
BAYTAlVTMREwDwYDVQQIDAhNaXNzb3VyaTETMBEGA1UECgwKU2lyaSBQcm94eTEU
MBIGA1UEAwwLU2lyaVByb3h5Q0EwHhcNMTExMjMxMjI0OTUwWhcNMTQxMjMwMjI0
OTUwWjBLMQswCQYDVQQGEwJVUzERMA8GA1UECAwITWlzc291cmkxEzARBgNVBAoM
ClNpcmkgUHJveHkxFDASBgNVBAMMC1NpcmlQcm94eUNBMIGfMA0GCSqGSIb3DQEB
AQUAA4GNADCBiQKBgQC7YfZyQ9UoIZQ1hhuszcut3ZOu5ZgWAXkpiG1QLpgexBEv
31/vGP8lOgGL6u41yIQnPas/JoCuZ/3bZrztVxozhrRRLrd+I4mxUwVhuxxnecMe
/Wlq02Z3iWuohIuWTGm/v8aTIHC8GV1lhkzyZcMfduGvazH/XCliX/0jWJcqXQID
AQABo1AwTjAdBgNVHQ4EFgQUN1EvwxKTLieKQlWkrF6L3qb+36swHwYDVR0jBBgw
FoAUN1EvwxKTLieKQlWkrF6L3qb+36swDAYDVR0TBAUwAwEB/zANBgkqhkiG9w0B
AQUFAAOBgQAT2kYV/K9PkaXhfkHZ3lZl1CItFjbtNsqEWsYFh59xjsdOmFGNc9MR
9E19eDfMkVi4aSZBnhZS7Ad1POklB4QvigwwoDIejhKOh+EmJQf77zo4t3+cbgeI
v54kccbITOzKVZOfQNxzsffZt59L5lLntrOwRTQ2k+JjEFlYleBHig==
-----END CERTIFICATE-----
